; Function Attrs: mustprogress nofree norecurse nounwind willreturn memory(argmem: readwrite, inaccessiblemem: readwrite) uwtable
define hidden noundef zeroext i1 @_ZN9vmClasses9is_loadedEP13InstanceKlass(ptr noundef %0) local_unnamed_addr #1 align 2 {
  %.not = icmp eq ptr %0, null
  br i1 %.not, label %6, label %2

2:                                                ; preds = %1
  %3 = getelementptr inbounds i8, ptr %0, i64 305
  %4 = load volatile i8, ptr %3, align 1
  %5 = icmp ne i8 %4, 0
  br label %6

6:                                                ; preds = %2, %1
  %7 = phi i1 [ false, %1 ], [ %5, %2 ]
  ret i1 %7
}